; Function Attrs: mustprogress uwtable
define internal fastcc void @_ZN32pxrInternal_v0_24__pxrReserved__L26_GetTimeSamplesForIntervalERKNS_12UsdAttributeERKNS_10GfIntervalEPSt6vectorIdSaIdEE(ptr noundef nonnull align 8 dereferenceable(32) %0, ptr noundef nonnull align 8 dereferenceable(32) %1, ptr noundef %2) unnamed_addr #0 {
  %4 = alloca double, align 8
  %5 = alloca double, align 8
  %6 = alloca double, align 8
  %7 = alloca i8, align 1
  %8 = alloca i8, align 1
  %9 = tail call noundef zeroext i1 @_ZNK32pxrInternal_v0_24__pxrReserved__12UsdAttribute24GetTimeSamplesInIntervalERKNS_10GfIntervalEPSt6vectorIdSaIdEE(ptr noundef nonnull align 8 dereferenceable(32) %0, ptr noundef nonnull align 8 dereferenceable(32) %1, ptr noundef %2)
  %10 = load double, ptr %1, align 8
  %11 = call noundef zeroext i1 @_ZNK32pxrInternal_v0_24__pxrReserved__12UsdAttribute24GetBracketingTimeSamplesEdPdS1_Pb(ptr noundef nonnull align 8 dereferenceable(32) %0, double noundef %10, ptr noundef nonnull %4, ptr noundef nonnull %5, ptr noundef nonnull %7)
  %12 = load i8, ptr %7, align 1
  %13 = trunc i8 %12 to i1
  br i1 %13, label %14, label %18

14:                                               ; preds = %3
  %15 = load double, ptr %4, align 8
  %16 = load double, ptr %5, align 8
  %17 = fcmp oeq double %15, %16
  br i1 %17, label %18, label %20

18:                                               ; preds = %14, %3
  %19 = load double, ptr %1, align 8
  store double %19, ptr %4, align 8
  br label %20

20:                                               ; preds = %18, %14
  %21 = getelementptr inbounds nuw i8, ptr %1, i64 16
  %22 = load double, ptr %21, align 8
  %23 = call noundef zeroext i1 @_ZNK32pxrInternal_v0_24__pxrReserved__12UsdAttribute24GetBracketingTimeSamplesEdPdS1_Pb(ptr noundef nonnull align 8 dereferenceable(32) %0, double noundef %22, ptr noundef nonnull %5, ptr noundef nonnull %6, ptr noundef nonnull %8)
  %24 = load i8, ptr %8, align 1
  %25 = trunc i8 %24 to i1
  br i1 %25, label %26, label %30

26:                                               ; preds = %20
  %27 = load double, ptr %6, align 8
  %28 = load double, ptr %5, align 8
  %29 = fcmp oeq double %27, %28
  br i1 %29, label %30, label %32

30:                                               ; preds = %26, %20
  %31 = load double, ptr %21, align 8
  store double %31, ptr %6, align 8
  br label %32

32:                                               ; preds = %30, %26
  %33 = phi double [ %31, %30 ], [ %27, %26 ]
  %34 = load ptr, ptr %2, align 8
  %35 = getelementptr inbounds nuw i8, ptr %2, i64 8
  %36 = load ptr, ptr %35, align 8
  %37 = icmp eq ptr %34, %36
  br i1 %37, label %42, label %38

38:                                               ; preds = %32
  %39 = load double, ptr %4, align 8
  %40 = load double, ptr %34, align 8
  %41 = fcmp olt double %39, %40
  br i1 %41, label %42, label %44

42:                                               ; preds = %38, %32
  %43 = call ptr @_ZNSt6vectorIdSaIdEE6insertEN9__gnu_cxx17__normal_iteratorIPKdS1_EERS4_(ptr noundef nonnull align 8 dereferenceable(24) %2, ptr %34, ptr noundef nonnull align 8 dereferenceable(8) %4)
  %.pre = load double, ptr %6, align 8
  %.pre20 = load ptr, ptr %35, align 8
  br label %44

44:                                               ; preds = %42, %38
  %45 = phi ptr [ %.pre20, %42 ], [ %36, %38 ]
  %46 = phi double [ %.pre, %42 ], [ %33, %38 ]
  %47 = getelementptr inbounds i8, ptr %45, i64 -8
  %48 = load double, ptr %47, align 8
  %49 = fcmp ogt double %46, %48
  br i1 %49, label %50, label %52

50:                                               ; preds = %44
  %51 = call ptr @_ZNSt6vectorIdSaIdEE6insertEN9__gnu_cxx17__normal_iteratorIPKdS1_EERS4_(ptr noundef nonnull align 8 dereferenceable(24) %2, ptr nonnull %45, ptr noundef nonnull align 8 dereferenceable(8) %6)
  br label %52

52:                                               ; preds = %50, %44
  ret void
}